target datalayout = "e-m:e-p270:32:32-p271:32:32-p272:64:64-i64:64-i128:128-f80:128-n8:16:32:64-S128"
target triple = "x86_64-pc-linux-gnu"

; Function Attrs: nounwind uwtable
define internal i64 @bio_bufferevent_ctrl(ptr noundef %0, i32 noundef %1, i64 noundef %2, ptr noundef %3) #0 {
  %5 = alloca ptr, align 8
  %6 = alloca i32, align 4
  %7 = alloca i64, align 8
  %8 = alloca ptr, align 8
  %9 = alloca ptr, align 8
  %10 = alloca i64, align 8
  store ptr %0, ptr %5, align 8
  store i32 %1, ptr %6, align 4
  store i64 %2, ptr %7, align 8
  store ptr %3, ptr %8, align 8
  call void @llvm.lifetime.start.p0(i64 8, ptr %9) #5
  %11 = load ptr, ptr %5, align 8
  %12 = call ptr @BIO_get_data(ptr noundef %11)
  store ptr %12, ptr %9, align 8
  call void @llvm.lifetime.start.p0(i64 8, ptr %10) #5
  store i64 1, ptr %10, align 8
  %13 = load i32, ptr %6, align 4
  switch i32 %13, label %37 [
    i32 8, label %14
    i32 9, label %18
    i32 10, label %22
    i32 13, label %29
    i32 12, label %36
    i32 11, label %36
  ]

14:                                               ; preds = %4
  %15 = load ptr, ptr %5, align 8
  %16 = call i32 @BIO_get_shutdown(ptr noundef %15)
  %17 = sext i32 %16 to i64
  store i64 %17, ptr %10, align 8
  br label %38

18:                                               ; preds = %4
  %19 = load ptr, ptr %5, align 8
  %20 = load i64, ptr %7, align 8
  %21 = trunc i64 %20 to i32
  call void @BIO_set_shutdown(ptr noundef %19, i32 noundef %21)
  br label %38

22:                                               ; preds = %4
  %23 = load ptr, ptr %9, align 8
  %24 = call ptr @bufferevent_get_input(ptr noundef %23)
  %25 = call i64 @evbuffer_get_length(ptr noundef %24)
  %26 = icmp ne i64 %25, 0
  %27 = zext i1 %26 to i32
  %28 = sext i32 %27 to i64
  store i64 %28, ptr %10, align 8
  br label %38

29:                                               ; preds = %4
  %30 = load ptr, ptr %9, align 8
  %31 = call ptr @bufferevent_get_output(ptr noundef %30)
  %32 = call i64 @evbuffer_get_length(ptr noundef %31)
  %33 = icmp ne i64 %32, 0
  %34 = zext i1 %33 to i32
  %35 = sext i32 %34 to i64
  store i64 %35, ptr %10, align 8
  br label %38

36:                                               ; preds = %4, %4
  store i64 1, ptr %10, align 8
  br label %38

37:                                               ; preds = %4
  store i64 0, ptr %10, align 8
  br label %38

38:                                               ; preds = %37, %36, %29, %22, %18, %14
  %39 = load i64, ptr %10, align 8
  call void @llvm.lifetime.end.p0(i64 8, ptr %10) #5
  call void @llvm.lifetime.end.p0(i64 8, ptr %9) #5
  ret i64 %39
}