; Function Attrs: nounwind uwtable
define internal range(i64 -2147483648, 2147483648) i64 @bio_bufferevent_ctrl(ptr noundef %0, i32 noundef %1, i64 noundef %2, ptr readnone captures(none) %3) #0 {
  %5 = tail call ptr @BIO_get_data(ptr noundef %0) #5
  switch i32 %1, label %21 [
    i32 8, label %6
    i32 9, label %9
    i32 10, label %11
    i32 13, label %16
    i32 12, label %22
    i32 11, label %22
  ]

6:                                                ; preds = %4
  %7 = tail call i32 @BIO_get_shutdown(ptr noundef %0) #5
  %8 = sext i32 %7 to i64
  br label %22

9:                                                ; preds = %4
  %10 = trunc i64 %2 to i32
  tail call void @BIO_set_shutdown(ptr noundef %0, i32 noundef %10) #5
  br label %22

11:                                               ; preds = %4
  %12 = tail call ptr @bufferevent_get_input(ptr noundef %5) #5
  %13 = tail call i64 @evbuffer_get_length(ptr noundef %12) #5
  %14 = icmp ne i64 %13, 0
  %15 = zext i1 %14 to i64
  br label %22

16:                                               ; preds = %4
  %17 = tail call ptr @bufferevent_get_output(ptr noundef %5) #5
  %18 = tail call i64 @evbuffer_get_length(ptr noundef %17) #5
  %19 = icmp ne i64 %18, 0
  %20 = zext i1 %19 to i64
  br label %22

21:                                               ; preds = %4
  br label %22

22:                                               ; preds = %4, %4, %21, %16, %11, %9, %6
  %.0 = phi i64 [ 0, %21 ], [ %20, %16 ], [ %15, %11 ], [ 1, %9 ], [ %8, %6 ], [ 1, %4 ], [ 1, %4 ]
  ret i64 %.0
}